target datalayout = "e-m:e-p270:32:32-p271:32:32-p272:64:64-i64:64-i128:128-f80:128-n8:16:32:64-S128"
target triple = "x86_64-unknown-linux-gnu"

%"struct.grpc_core::PerCpuShardingHelper::State" = type { i16, i16 }
%"class.std::basic_string_view" = type { i64, ptr }
%"class.grpc_core::PolymorphicRefCount" = type { ptr }
%"class.grpc_core::RefCount" = type { %"struct.std::atomic" }
%"struct.std::atomic" = type { %"struct.std::__atomic_base" }
%"struct.std::__atomic_base" = type { i64 }
%"class.grpc_core::RefCountedPtr" = type { ptr }
%"struct.std::atomic.0" = type { %"struct.std::__atomic_base.1" }
%"struct.std::__atomic_base.1" = type { i64 }
%"class.absl::lts_20230802::Mutex" = type { %"struct.std::atomic" }
%"struct.std::_Rb_tree_key_compare" = type { %"struct.std::less" }
%"struct.std::less" = type { i8 }
%"struct.std::_Rb_tree_header" = type { %"struct.std::_Rb_tree_node_base", i64 }
%"struct.std::_Rb_tree_node_base" = type { i32, ptr, ptr, ptr }
%"class.grpc_core::XdsClusterLocalityStats" = type { %"class.grpc_core::RefCounted.66", %"class.grpc_core::RefCountedPtr", ptr, %"class.std::basic_string_view", %"class.std::basic_string_view", %"class.grpc_core::RefCountedPtr.65", %"class.grpc_core::PerCpu" }
%"class.grpc_core::RefCounted.66" = type { %"class.grpc_core::PolymorphicRefCount", %"class.grpc_core::RefCount" }
%"class.grpc_core::RefCountedPtr.65" = type { ptr }
%"class.grpc_core::PerCpu" = type { %"class.grpc_core::PerCpuShardingHelper", i64, %"class.std::unique_ptr.67" }
%"class.grpc_core::PerCpuShardingHelper" = type { i8 }
%"class.std::unique_ptr.67" = type { %"struct.std::__uniq_ptr_data.68" }
%"struct.std::__uniq_ptr_data.68" = type { %"class.std::__uniq_ptr_impl.69" }
%"class.std::__uniq_ptr_impl.69" = type { %"class.std::tuple.70" }
%"class.std::tuple.70" = type { %"struct.std::_Tuple_impl.71" }
%"struct.std::_Tuple_impl.71" = type { %"struct.std::_Head_base.74" }
%"struct.std::_Head_base.74" = type { ptr }
%"struct.grpc_core::XdsClusterLocalityStats::Stats" = type { %"struct.std::atomic.0", %"struct.std::atomic.0", %"struct.std::atomic.0", %"struct.std::atomic.0", %"class.absl::lts_20230802::Mutex", %"class.std::map.76" }
%"class.std::map.76" = type { %"class.std::_Rb_tree.77" }
%"class.std::_Rb_tree.77" = type { %"struct.std::_Rb_tree<std::__cxx11::basic_string<char>, std::pair<const std::__cxx11::basic_string<char>, grpc_core::XdsClusterLocalityStats::BackendMetric>, std::_Select1st<std::pair<const std::__cxx11::basic_string<char>, grpc_core::XdsClusterLocalityStats::BackendMetric>>, std::less<std::__cxx11::basic_string<char>>>::_Rb_tree_impl" }
%"struct.std::_Rb_tree<std::__cxx11::basic_string<char>, std::pair<const std::__cxx11::basic_string<char>, grpc_core::XdsClusterLocalityStats::BackendMetric>, std::_Select1st<std::pair<const std::__cxx11::basic_string<char>, grpc_core::XdsClusterLocalityStats::BackendMetric>>, std::less<std::__cxx11::basic_string<char>>>::_Rb_tree_impl" = type { %"struct.std::_Rb_tree_key_compare", %"struct.std::_Rb_tree_header" }

@_ZN9grpc_core20PerCpuShardingHelper6state_E = external thread_local global %"struct.grpc_core::PerCpuShardingHelper::State", align 2

; Function Attrs: mustprogress nounwind uwtable
define linkonce_odr noundef nonnull align 8 dereferenceable(8) ptr @_ZNSt10_Head_baseILm0EPN9grpc_core23XdsClusterLocalityStats5StatsELb0EE7_M_headERKS4_(ptr noundef nonnull align 8 dereferenceable(8) %__b) #5 comdat align 2 {
entry:
  %__b.addr = alloca ptr, align 8
  store ptr %__b, ptr %__b.addr, align 8
  %0 = load ptr, ptr %__b.addr, align 8
  %_M_head_impl = getelementptr inbounds %"struct.std::_Head_base.74", ptr %0, i32 0, i32 0
  ret ptr %_M_head_impl
}

; Function Attrs: mustprogress nounwind uwtable
define linkonce_odr noundef nonnull align 8 dereferenceable(8) ptr @_ZNSt11_Tuple_implILm0EJPN9grpc_core23XdsClusterLocalityStats5StatsESt14default_deleteIA_S2_EEE7_M_headERKS7_(ptr noundef nonnull align 8 dereferenceable(8) %__t) #5 comdat align 2 {
entry:
  %__t.addr = alloca ptr, align 8
  store ptr %__t, ptr %__t.addr, align 8
  %0 = load ptr, ptr %__t.addr, align 8
  %call = call noundef nonnull align 8 dereferenceable(8) ptr @_ZNSt10_Head_baseILm0EPN9grpc_core23XdsClusterLocalityStats5StatsELb0EE7_M_headERKS4_(ptr noundef nonnull align 8 dereferenceable(8) %0) #3
  ret ptr %call
}

; Function Attrs: mustprogress nounwind uwtable
define linkonce_odr noundef nonnull align 8 dereferenceable(8) ptr @_ZSt12__get_helperILm0EPN9grpc_core23XdsClusterLocalityStats5StatsEJSt14default_deleteIA_S2_EEERKT0_RKSt11_Tuple_implIXT_EJS7_DpT1_EE(ptr noundef nonnull align 8 dereferenceable(8) %__t) #5 comdat {
entry:
  %__t.addr = alloca ptr, align 8
  store ptr %__t, ptr %__t.addr, align 8
  %0 = load ptr, ptr %__t.addr, align 8
  %call = call noundef nonnull align 8 dereferenceable(8) ptr @_ZNSt11_Tuple_implILm0EJPN9grpc_core23XdsClusterLocalityStats5StatsESt14default_deleteIA_S2_EEE7_M_headERKS7_(ptr noundef nonnull align 8 dereferenceable(8) %0) #3
  ret ptr %call
}

; Function Attrs: mustprogress nounwind uwtable
define linkonce_odr noundef nonnull align 8 dereferenceable(8) ptr @_ZSt3getILm0EJPN9grpc_core23XdsClusterLocalityStats5StatsESt14default_deleteIA_S2_EEERKNSt13tuple_elementIXT_ESt5tupleIJDpT0_EEE4typeERKSB_(ptr noundef nonnull align 8 dereferenceable(8) %__t) #5 comdat {
entry:
  %__t.addr = alloca ptr, align 8
  store ptr %__t, ptr %__t.addr, align 8
  %0 = load ptr, ptr %__t.addr, align 8
  %call = call noundef nonnull align 8 dereferenceable(8) ptr @_ZSt12__get_helperILm0EPN9grpc_core23XdsClusterLocalityStats5StatsEJSt14default_deleteIA_S2_EEERKT0_RKSt11_Tuple_implIXT_EJS7_DpT1_EE(ptr noundef nonnull align 8 dereferenceable(8) %0) #3
  ret ptr %call
}

; Function Attrs: mustprogress nounwind uwtable
define linkonce_odr noundef ptr @_ZNKSt15__uniq_ptr_implIN9grpc_core23XdsClusterLocalityStats5StatsESt14default_deleteIA_S2_EE6_M_ptrEv(ptr noundef nonnull align 8 dereferenceable(8) %this) #5 comdat align 2 {
entry:
  %this.addr = alloca ptr, align 8
  store ptr %this, ptr %this.addr, align 8
  %this1 = load ptr, ptr %this.addr, align 8
  %_M_t = getelementptr inbounds %"class.std::__uniq_ptr_impl.69", ptr %this1, i32 0, i32 0
  %call = call noundef nonnull align 8 dereferenceable(8) ptr @_ZSt3getILm0EJPN9grpc_core23XdsClusterLocalityStats5StatsESt14default_deleteIA_S2_EEERKNSt13tuple_elementIXT_ESt5tupleIJDpT0_EEE4typeERKSB_(ptr noundef nonnull align 8 dereferenceable(8) %_M_t) #3
  %0 = load ptr, ptr %call, align 8
  ret ptr %0
}

; Function Attrs: mustprogress nounwind uwtable
define linkonce_odr noundef ptr @_ZNKSt10unique_ptrIA_N9grpc_core23XdsClusterLocalityStats5StatsESt14default_deleteIS3_EE3getEv(ptr noundef nonnull align 8 dereferenceable(8) %this) #5 comdat align 2 {
entry:
  %this.addr = alloca ptr, align 8
  store ptr %this, ptr %this.addr, align 8
  %this1 = load ptr, ptr %this.addr, align 8
  %_M_t = getelementptr inbounds %"class.std::unique_ptr.67", ptr %this1, i32 0, i32 0
  %call = call noundef ptr @_ZNKSt15__uniq_ptr_implIN9grpc_core23XdsClusterLocalityStats5StatsESt14default_deleteIA_S2_EE6_M_ptrEv(ptr noundef nonnull align 8 dereferenceable(8) %_M_t) #3
  ret ptr %call
}

; Function Attrs: mustprogress uwtable
define linkonce_odr void @_ZN9grpc_core20PerCpuShardingHelper5StateC2Ev(ptr noundef nonnull align 2 dereferenceable(4) %this) unnamed_addr #4 comdat align 2 {
entry:
  %this.addr = alloca ptr, align 8
  store ptr %this, ptr %this.addr, align 8
  %this1 = load ptr, ptr %this.addr, align 8
  %last_seen_cpu = getelementptr inbounds %"struct.grpc_core::PerCpuShardingHelper::State", ptr %this1, i32 0, i32 0
  %call = call i32 @gpr_cpu_current_cpu()
  %conv = trunc i32 %call to i16
  store i16 %conv, ptr %last_seen_cpu, align 2
  %uses_until_refresh = getelementptr inbounds %"struct.grpc_core::PerCpuShardingHelper::State", ptr %this1, i32 0, i32 1
  store i16 -1, ptr %uses_until_refresh, align 2
  ret void
}

; Function Attrs: uwtable
define linkonce_odr hidden noundef ptr @_ZTWN9grpc_core20PerCpuShardingHelper6state_E() #14 comdat {
  br i1 icmp ne (ptr @_ZTHN9grpc_core20PerCpuShardingHelper6state_E, ptr null), label %1, label %2

1:                                                ; preds = %0
  call void @_ZTHN9grpc_core20PerCpuShardingHelper6state_E()
  br label %2

2:                                                ; preds = %1, %0
  %3 = call align 2 ptr @llvm.threadlocal.address.p0(ptr align 2 @_ZN9grpc_core20PerCpuShardingHelper6state_E)
  ret ptr %3
}

; Function Attrs: mustprogress nounwind uwtable
define linkonce_odr noundef nonnull align 8 dereferenceable(88) ptr @_ZNKSt10unique_ptrIA_N9grpc_core23XdsClusterLocalityStats5StatsESt14default_deleteIS3_EEixEm(ptr noundef nonnull align 8 dereferenceable(8) %this, i64 noundef %__i) #5 comdat align 2 {
entry:
  %this.addr = alloca ptr, align 8
  %__i.addr = alloca i64, align 8
  store ptr %this, ptr %this.addr, align 8
  store i64 %__i, ptr %__i.addr, align 8
  %this1 = load ptr, ptr %this.addr, align 8
  br label %do.body

do.body:                                          ; preds = %entry
  br label %do.end

do.end:                                           ; preds = %do.body
  %call = call noundef ptr @_ZNKSt10unique_ptrIA_N9grpc_core23XdsClusterLocalityStats5StatsESt14default_deleteIS3_EE3getEv(ptr noundef nonnull align 8 dereferenceable(8) %this1) #3
  %0 = load i64, ptr %__i.addr, align 8
  %arrayidx = getelementptr inbounds %"struct.grpc_core::XdsClusterLocalityStats::Stats", ptr %call, i64 %0
  ret ptr %arrayidx
}

; Function Attrs: mustprogress uwtable
define linkonce_odr noundef i64 @_ZN9grpc_core20PerCpuShardingHelper15GetShardingBitsEv(ptr noundef nonnull align 1 dereferenceable(1) %this) #4 comdat align 2 {
entry:
  %this.addr = alloca ptr, align 8
  %ref.tmp = alloca %"struct.grpc_core::PerCpuShardingHelper::State", align 2
  store ptr %this, ptr %this.addr, align 8
  %0 = call ptr @_ZTWN9grpc_core20PerCpuShardingHelper6state_E()
  %uses_until_refresh = getelementptr inbounds %"struct.grpc_core::PerCpuShardingHelper::State", ptr %0, i32 0, i32 1
  %1 = load i16, ptr %uses_until_refresh, align 2
  %conv = zext i16 %1 to i32
  %cmp = icmp eq i32 %conv, 0
  br i1 %cmp, label %if.then, label %if.end

if.then:                                          ; preds = %entry
  call void @llvm.memset.p0.i64(ptr align 2 %ref.tmp, i8 0, i64 4, i1 false)
  call void @_ZN9grpc_core20PerCpuShardingHelper5StateC2Ev(ptr noundef nonnull align 2 dereferenceable(4) %ref.tmp)
  %2 = call ptr @_ZTWN9grpc_core20PerCpuShardingHelper6state_E()
  call void @llvm.memcpy.p0.p0.i64(ptr align 2 %2, ptr align 2 %ref.tmp, i64 4, i1 false)
  br label %if.end

if.end:                                           ; preds = %if.then, %entry
  %3 = call ptr @_ZTWN9grpc_core20PerCpuShardingHelper6state_E()
  %uses_until_refresh3 = getelementptr inbounds %"struct.grpc_core::PerCpuShardingHelper::State", ptr %3, i32 0, i32 1
  %4 = load i16, ptr %uses_until_refresh3, align 2
  %dec = add i16 %4, -1
  store i16 %dec, ptr %uses_until_refresh3, align 2
  %5 = call ptr @_ZTWN9grpc_core20PerCpuShardingHelper6state_E()
  %last_seen_cpu = getelementptr inbounds %"struct.grpc_core::PerCpuShardingHelper::State", ptr %5, i32 0, i32 0
  %6 = load i16, ptr %last_seen_cpu, align 2
  %conv4 = zext i16 %6 to i64
  ret i64 %conv4
}

; Function Attrs: mustprogress uwtable
define linkonce_odr noundef nonnull align 8 dereferenceable(88) ptr @_ZN9grpc_core6PerCpuINS_23XdsClusterLocalityStats5StatsEE8this_cpuEv(ptr noundef nonnull align 8 dereferenceable(24) %this) #4 comdat align 2 {
entry:
  %this.addr = alloca ptr, align 8
  store ptr %this, ptr %this.addr, align 8
  %this1 = load ptr, ptr %this.addr, align 8
  %data_ = getelementptr inbounds %"class.grpc_core::PerCpu", ptr %this1, i32 0, i32 2
  %sharding_helper_ = getelementptr inbounds %"class.grpc_core::PerCpu", ptr %this1, i32 0, i32 0
  %call = call noundef i64 @_ZN9grpc_core20PerCpuShardingHelper15GetShardingBitsEv(ptr noundef nonnull align 1 dereferenceable(1) %sharding_helper_)
  %shards_ = getelementptr inbounds %"class.grpc_core::PerCpu", ptr %this1, i32 0, i32 1
  %0 = load i64, ptr %shards_, align 8
  %rem = urem i64 %call, %0
  %call2 = call noundef nonnull align 8 dereferenceable(88) ptr @_ZNKSt10unique_ptrIA_N9grpc_core23XdsClusterLocalityStats5StatsESt14default_deleteIS3_EEixEm(ptr noundef nonnull align 8 dereferenceable(8) %data_, i64 noundef %rem)
  ret ptr %call2
}

; Function Attrs: mustprogress uwtable
define void @_ZN9grpc_core23XdsClusterLocalityStats14AddCallStartedEv(ptr noundef nonnull align 8 dereferenceable(96) %this) #4 align 2 {
entry:
  %this.addr.i4 = alloca ptr, align 8
  %__i.addr.i5 = alloca i64, align 8
  %__m.addr.i6 = alloca i32, align 4
  %.atomictmp.i7 = alloca i64, align 8
  %atomic-temp.i8 = alloca i64, align 8
  %this.addr.i = alloca ptr, align 8
  %__i.addr.i = alloca i64, align 8
  %__m.addr.i = alloca i32, align 4
  %.atomictmp.i = alloca i64, align 8
  %atomic-temp.i = alloca i64, align 8
  %this.addr = alloca ptr, align 8
  %stats = alloca ptr, align 8
  store ptr %this, ptr %this.addr, align 8
  %this1 = load ptr, ptr %this.addr, align 8
  %stats_ = getelementptr inbounds %"class.grpc_core::XdsClusterLocalityStats", ptr %this1, i32 0, i32 6
  %call = call noundef nonnull align 8 dereferenceable(88) ptr @_ZN9grpc_core6PerCpuINS_23XdsClusterLocalityStats5StatsEE8this_cpuEv(ptr noundef nonnull align 8 dereferenceable(24) %stats_)
  store ptr %call, ptr %stats, align 8
  %0 = load ptr, ptr %stats, align 8
  %total_issued_requests = getelementptr inbounds %"struct.grpc_core::XdsClusterLocalityStats::Stats", ptr %0, i32 0, i32 3
  store ptr %total_issued_requests, ptr %this.addr.i4, align 8
  store i64 1, ptr %__i.addr.i5, align 8
  store i32 0, ptr %__m.addr.i6, align 4
  %this1.i9 = load ptr, ptr %this.addr.i4, align 8
  %1 = load i32, ptr %__m.addr.i6, align 4
  %2 = load i64, ptr %__i.addr.i5, align 8
  store i64 %2, ptr %.atomictmp.i7, align 8
  switch i32 %1, label %monotonic.i14 [
    i32 1, label %acquire.i13
    i32 2, label %acquire.i13
    i32 3, label %release.i12
    i32 4, label %acqrel.i11
    i32 5, label %seqcst.i10
  ]

monotonic.i14:                                    ; preds = %entry
  %3 = load i64, ptr %.atomictmp.i7, align 8
  %4 = atomicrmw add ptr %this1.i9, i64 %3 monotonic, align 8
  store i64 %4, ptr %atomic-temp.i8, align 8
  br label %_ZNSt13__atomic_baseImE9fetch_addEmSt12memory_order.exit15

acquire.i13:                                      ; preds = %entry, %entry
  %5 = load i64, ptr %.atomictmp.i7, align 8
  %6 = atomicrmw add ptr %this1.i9, i64 %5 acquire, align 8
  store i64 %6, ptr %atomic-temp.i8, align 8
  br label %_ZNSt13__atomic_baseImE9fetch_addEmSt12memory_order.exit15

release.i12:                                      ; preds = %entry
  %7 = load i64, ptr %.atomictmp.i7, align 8
  %8 = atomicrmw add ptr %this1.i9, i64 %7 release, align 8
  store i64 %8, ptr %atomic-temp.i8, align 8
  br label %_ZNSt13__atomic_baseImE9fetch_addEmSt12memory_order.exit15

acqrel.i11:                                       ; preds = %entry
  %9 = load i64, ptr %.atomictmp.i7, align 8
  %10 = atomicrmw add ptr %this1.i9, i64 %9 acq_rel, align 8
  store i64 %10, ptr %atomic-temp.i8, align 8
  br label %_ZNSt13__atomic_baseImE9fetch_addEmSt12memory_order.exit15

seqcst.i10:                                       ; preds = %entry
  %11 = load i64, ptr %.atomictmp.i7, align 8
  %12 = atomicrmw add ptr %this1.i9, i64 %11 seq_cst, align 8
  store i64 %12, ptr %atomic-temp.i8, align 8
  br label %_ZNSt13__atomic_baseImE9fetch_addEmSt12memory_order.exit15

_ZNSt13__atomic_baseImE9fetch_addEmSt12memory_order.exit15: ; preds = %seqcst.i10, %acqrel.i11, %release.i12, %acquire.i13, %monotonic.i14
  %13 = load ptr, ptr %stats, align 8
  %total_requests_in_progress = getelementptr inbounds %"struct.grpc_core::XdsClusterLocalityStats::Stats", ptr %13, i32 0, i32 1
  store ptr %total_requests_in_progress, ptr %this.addr.i, align 8
  store i64 1, ptr %__i.addr.i, align 8
  store i32 0, ptr %__m.addr.i, align 4
  %this1.i = load ptr, ptr %this.addr.i, align 8
  %14 = load i32, ptr %__m.addr.i, align 4
  %15 = load i64, ptr %__i.addr.i, align 8
  store i64 %15, ptr %.atomictmp.i, align 8
  switch i32 %14, label %monotonic.i [
    i32 1, label %acquire.i
    i32 2, label %acquire.i
    i32 3, label %release.i
    i32 4, label %acqrel.i
    i32 5, label %seqcst.i
  ]

monotonic.i:                                      ; preds = %_ZNSt13__atomic_baseImE9fetch_addEmSt12memory_order.exit15
  %16 = load i64, ptr %.atomictmp.i, align 8
  %17 = atomicrmw add ptr %this1.i, i64 %16 monotonic, align 8
  store i64 %17, ptr %atomic-temp.i, align 8
  br label %_ZNSt13__atomic_baseImE9fetch_addEmSt12memory_order.exit

acquire.i:                                        ; preds = %_ZNSt13__atomic_baseImE9fetch_addEmSt12memory_order.exit15, %_ZNSt13__atomic_baseImE9fetch_addEmSt12memory_order.exit15
  %18 = load i64, ptr %.atomictmp.i, align 8
  %19 = atomicrmw add ptr %this1.i, i64 %18 acquire, align 8
  store i64 %19, ptr %atomic-temp.i, align 8
  br label %_ZNSt13__atomic_baseImE9fetch_addEmSt12memory_order.exit

release.i:                                        ; preds = %_ZNSt13__atomic_baseImE9fetch_addEmSt12memory_order.exit15
  %20 = load i64, ptr %.atomictmp.i, align 8
  %21 = atomicrmw add ptr %this1.i, i64 %20 release, align 8
  store i64 %21, ptr %atomic-temp.i, align 8
  br label %_ZNSt13__atomic_baseImE9fetch_addEmSt12memory_order.exit

acqrel.i:                                         ; preds = %_ZNSt13__atomic_baseImE9fetch_addEmSt12memory_order.exit15
  %22 = load i64, ptr %.atomictmp.i, align 8
  %23 = atomicrmw add ptr %this1.i, i64 %22 acq_rel, align 8
  store i64 %23, ptr %atomic-temp.i, align 8
  br label %_ZNSt13__atomic_baseImE9fetch_addEmSt12memory_order.exit

seqcst.i:                                         ; preds = %_ZNSt13__atomic_baseImE9fetch_addEmSt12memory_order.exit15
  %24 = load i64, ptr %.atomictmp.i, align 8
  %25 = atomicrmw add ptr %this1.i, i64 %24 seq_cst, align 8
  store i64 %25, ptr %atomic-temp.i, align 8
  br label %_ZNSt13__atomic_baseImE9fetch_addEmSt12memory_order.exit

_ZNSt13__atomic_baseImE9fetch_addEmSt12memory_order.exit: ; preds = %seqcst.i, %acqrel.i, %release.i, %acquire.i, %monotonic.i
  ret void
}