; Function Attrs: uwtable
define void @_ZN9grpc_core23XdsClusterLocalityStats14AddCallStartedEv(ptr nocapture noundef nonnull readonly align 8 dereferenceable(96) %this) local_unnamed_addr #10 align 2 {
entry:
  br i1 icmp ne (ptr @_ZTHN9grpc_core20PerCpuShardingHelper6state_E, ptr null), label %0, label %_ZTWN9grpc_core20PerCpuShardingHelper6state_E.exit.i.i

0:                                                ; preds = %entry
  tail call void @_ZTHN9grpc_core20PerCpuShardingHelper6state_E()
  br label %_ZTWN9grpc_core20PerCpuShardingHelper6state_E.exit.i.i

_ZTWN9grpc_core20PerCpuShardingHelper6state_E.exit.i.i: ; preds = %0, %entry
  %1 = tail call noundef align 2 ptr @llvm.threadlocal.address.p0(ptr align 2 @_ZN9grpc_core20PerCpuShardingHelper6state_E)
  %uses_until_refresh.i.i = getelementptr inbounds i8, ptr %1, i64 2
  %2 = load i16, ptr %uses_until_refresh.i.i, align 2
  %cmp.i.i = icmp eq i16 %2, 0
  br i1 %cmp.i.i, label %if.then.i.i, label %if.end.i.i

if.then.i.i:                                      ; preds = %_ZTWN9grpc_core20PerCpuShardingHelper6state_E.exit.i.i
  %call.i.i.i = tail call i32 @gpr_cpu_current_cpu()
  br i1 icmp ne (ptr @_ZTHN9grpc_core20PerCpuShardingHelper6state_E, ptr null), label %3, label %_ZTWN9grpc_core20PerCpuShardingHelper6state_E.exit1.i.i

3:                                                ; preds = %if.then.i.i
  tail call void @_ZTHN9grpc_core20PerCpuShardingHelper6state_E()
  br label %_ZTWN9grpc_core20PerCpuShardingHelper6state_E.exit1.i.i

_ZTWN9grpc_core20PerCpuShardingHelper6state_E.exit1.i.i: ; preds = %3, %if.then.i.i
  %ref.tmp.sroa.0.0.insert.insert.i.i = or i32 %call.i.i.i, -65536
  store i32 %ref.tmp.sroa.0.0.insert.insert.i.i, ptr %1, align 2
  br label %if.end.i.i

if.end.i.i:                                       ; preds = %_ZTWN9grpc_core20PerCpuShardingHelper6state_E.exit1.i.i, %_ZTWN9grpc_core20PerCpuShardingHelper6state_E.exit.i.i
  %4 = phi i16 [ -1, %_ZTWN9grpc_core20PerCpuShardingHelper6state_E.exit1.i.i ], [ %2, %_ZTWN9grpc_core20PerCpuShardingHelper6state_E.exit.i.i ]
  br i1 icmp ne (ptr @_ZTHN9grpc_core20PerCpuShardingHelper6state_E, ptr null), label %_ZTWN9grpc_core20PerCpuShardingHelper6state_E.exit2.i.i, label %_ZTWN9grpc_core20PerCpuShardingHelper6state_E.exit3.critedge.i.i

_ZTWN9grpc_core20PerCpuShardingHelper6state_E.exit2.i.i: ; preds = %if.end.i.i
  tail call void @_ZTHN9grpc_core20PerCpuShardingHelper6state_E()
  %5 = load i16, ptr %uses_until_refresh.i.i, align 2
  %dec.i.i = add i16 %5, -1
  store i16 %dec.i.i, ptr %uses_until_refresh.i.i, align 2
  tail call void @_ZTHN9grpc_core20PerCpuShardingHelper6state_E()
  br label %_ZN9grpc_core6PerCpuINS_23XdsClusterLocalityStats5StatsEE8this_cpuEv.exit

_ZTWN9grpc_core20PerCpuShardingHelper6state_E.exit3.critedge.i.i: ; preds = %if.end.i.i
  %dec.c.i.i = add i16 %4, -1
  store i16 %dec.c.i.i, ptr %uses_until_refresh.i.i, align 2
  br label %_ZN9grpc_core6PerCpuINS_23XdsClusterLocalityStats5StatsEE8this_cpuEv.exit

_ZN9grpc_core6PerCpuINS_23XdsClusterLocalityStats5StatsEE8this_cpuEv.exit: ; preds = %_ZTWN9grpc_core20PerCpuShardingHelper6state_E.exit2.i.i, %_ZTWN9grpc_core20PerCpuShardingHelper6state_E.exit3.critedge.i.i
  %data_.i = getelementptr inbounds i8, ptr %this, i64 88
  %6 = load i16, ptr %1, align 2
  %conv4.i.i = zext i16 %6 to i64
  %shards_.i = getelementptr inbounds i8, ptr %this, i64 80
  %7 = load i64, ptr %shards_.i, align 8
  %rem.i = urem i64 %conv4.i.i, %7
  %8 = load ptr, ptr %data_.i, align 8
  %arrayidx.i.i = getelementptr inbounds %"struct.grpc_core::XdsClusterLocalityStats::Stats", ptr %8, i64 %rem.i
  %total_issued_requests = getelementptr inbounds i8, ptr %arrayidx.i.i, i64 24
  %9 = atomicrmw add ptr %total_issued_requests, i64 1 monotonic, align 8
  %total_requests_in_progress = getelementptr inbounds i8, ptr %arrayidx.i.i, i64 8
  %10 = atomicrmw add ptr %total_requests_in_progress, i64 1 monotonic, align 8
  ret void
}